; ModuleID = '28/106.c'
source_filename = "28/106.c"
target datalayout = "e-m:e-p270:32:32-p271:32:32-p272:64:64-i64:64-f80:128-n8:16:32:64-S128"
target triple = "x86_64-pc-linux-gnu"

@.str = private unnamed_addr constant [3 x i8] c"%d\00", align 1
@.str.1 = private unnamed_addr constant [4 x i8] c",%d\00", align 1
@.str.2 = private unnamed_addr constant [2 x i8] c"\0A\00", align 1

; Function Attrs: noinline nounwind uwtable
define dso_local void @main() #0 {
  %1 = alloca i8, align 1
  %2 = alloca i8, align 1
  %3 = alloca i32, align 4
  %4 = alloca i32, align 4
  %5 = alloca [300 x i32], align 16
  store i32 0, i32* %3, align 4
  store i32 0, i32* %4, align 4
  store i8 0, i8* %2, align 1
  br label %6

6:                                                ; preds = %30, %0
  %7 = call i32 @getchar()
  %8 = trunc i32 %7 to i8
  store i8 %8, i8* %1, align 1
  %9 = sext i8 %8 to i32
  %10 = icmp ne i32 %9, 10
  br i1 %10, label %11, label %32

11:                                               ; preds = %6
  %12 = load i8, i8* %1, align 1
  %13 = sext i8 %12 to i32
  %14 = icmp ne i32 %13, 32
  br i1 %14, label %15, label %18

15:                                               ; preds = %11
  %16 = load i32, i32* %4, align 4
  %17 = add nsw i32 %16, 1
  store i32 %17, i32* %4, align 4
  br label %30

18:                                               ; preds = %11
  %19 = load i8, i8* %2, align 1
  %20 = sext i8 %19 to i32
  %21 = icmp ne i32 %20, 32
  br i1 %21, label %22, label %29

22:                                               ; preds = %18
  %23 = load i32, i32* %4, align 4
  %24 = load i32, i32* %3, align 4
  %25 = sext i32 %24 to i64
  %26 = getelementptr inbounds [300 x i32], [300 x i32]* %5, i64 0, i64 %25
  store i32 %23, i32* %26, align 4
  %27 = load i32, i32* %3, align 4
  %28 = add nsw i32 %27, 1
  store i32 %28, i32* %3, align 4
  store i32 0, i32* %4, align 4
  br label %29

29:                                               ; preds = %22, %18
  br label %30

30:                                               ; preds = %29, %15
  %31 = load i8, i8* %1, align 1
  store i8 %31, i8* %2, align 1
  br label %6

32:                                               ; preds = %6
  %33 = load i32, i32* %4, align 4
  %34 = load i32, i32* %3, align 4
  %35 = sext i32 %34 to i64
  %36 = getelementptr inbounds [300 x i32], [300 x i32]* %5, i64 0, i64 %35
  store i32 %33, i32* %36, align 4
  %37 = getelementptr inbounds [300 x i32], [300 x i32]* %5, i64 0, i64 0
  %38 = load i32, i32* %37, align 16
  %39 = call i32 (i8*, ...) @printf(i8* getelementptr inbounds ([3 x i8], [3 x i8]* @.str, i64 0, i64 0), i32 %38)
  store i32 1, i32* %4, align 4
  br label %40

40:                                               ; preds = %50, %32
  %41 = load i32, i32* %4, align 4
  %42 = load i32, i32* %3, align 4
  %43 = icmp sle i32 %41, %42
  br i1 %43, label %44, label %53

44:                                               ; preds = %40
  %45 = load i32, i32* %4, align 4
  %46 = sext i32 %45 to i64
  %47 = getelementptr inbounds [300 x i32], [300 x i32]* %5, i64 0, i64 %46
  %48 = load i32, i32* %47, align 4
  %49 = call i32 (i8*, ...) @printf(i8* getelementptr inbounds ([4 x i8], [4 x i8]* @.str.1, i64 0, i64 0), i32 %48)
  br label %50

50:                                               ; preds = %44
  %51 = load i32, i32* %4, align 4
  %52 = add nsw i32 %51, 1
  store i32 %52, i32* %4, align 4
  br label %40

53:                                               ; preds = %40
  %54 = call i32 (i8*, ...) @printf(i8* getelementptr inbounds ([2 x i8], [2 x i8]* @.str.2, i64 0, i64 0))
  ret void
}

declare dso_local i32 @getchar() #1

declare dso_local i32 @printf(i8*, ...) #1


!llvm.module.flags = !{!0}
!llvm.ident = !{!1}

!0 = !{i32 1, !"wchar_size", i32 4}
!1 = !{!"clang version 10.0.0-4ubuntu1 "}
