; ModuleID = 'source-C-CXX/27/106.c'
source_filename = "source-C-CXX/27/106.c"
target datalayout = "e-m:e-p270:32:32-p271:32:32-p272:64:64-i64:64-f80:128-n8:16:32:64-S128"
target triple = "x86_64-pc-linux-gnu"

%struct._IO_FILE = type { i32, i8*, i8*, i8*, i8*, i8*, i8*, i8*, i8*, i8*, i8*, i8*, %struct._IO_marker*, %struct._IO_FILE*, i32, i32, i64, i16, i8, [1 x i8], i8*, i64, %struct._IO_codecvt*, %struct._IO_wide_data*, %struct._IO_FILE*, i8*, i64, i32, [20 x i8] }
%struct._IO_marker = type opaque
%struct._IO_codecvt = type opaque
%struct._IO_wide_data = type opaque

@.str = private unnamed_addr constant [3 x i8] c"%d\00", align 1
@.str.1 = private unnamed_addr constant [4 x i8] c",%d\00", align 1
@stdin = external local_unnamed_addr global %struct._IO_FILE*, align 8

; Function Attrs: nofree nounwind sspstrong uwtable
define dso_local void @main() local_unnamed_addr #0 {
  %1 = alloca [300 x i32], align 16
  %2 = bitcast [300 x i32]* %1 to i8*
  call void @llvm.lifetime.start.p0i8(i64 1200, i8* nonnull %2) #4
  br label %3

3:                                                ; preds = %19, %0
  %4 = phi i32 [ %12, %19 ], [ 0, %0 ]
  %5 = phi i32 [ %22, %19 ], [ 0, %0 ]
  br label %6

6:                                                ; preds = %3, %14
  %7 = phi i32 [ %4, %3 ], [ %12, %14 ]
  %8 = phi i32 [ 0, %3 ], [ %15, %14 ]
  br label %9

9:                                                ; preds = %6, %16
  %10 = phi i32 [ %12, %16 ], [ %7, %6 ]
  %11 = load %struct._IO_FILE*, %struct._IO_FILE** @stdin, align 8, !tbaa !5
  %12 = tail call i32 @getc(%struct._IO_FILE* %11) #4
  %13 = shl i32 %12, 24
  switch i32 %13, label %14 [
    i32 167772160, label %23
    i32 536870912, label %16
  ]

14:                                               ; preds = %9
  %15 = add nuw nsw i32 %8, 1
  br label %6, !llvm.loop !9

16:                                               ; preds = %9
  %17 = and i32 %10, 255
  %18 = icmp eq i32 %17, 32
  br i1 %18, label %9, label %19, !llvm.loop !9

19:                                               ; preds = %16
  %20 = zext i32 %5 to i64
  %21 = getelementptr inbounds [300 x i32], [300 x i32]* %1, i64 0, i64 %20
  store i32 %8, i32* %21, align 4, !tbaa !11
  %22 = add nuw nsw i32 %5, 1
  br label %3, !llvm.loop !9

23:                                               ; preds = %9
  %24 = zext i32 %5 to i64
  %25 = getelementptr inbounds [300 x i32], [300 x i32]* %1, i64 0, i64 %24
  store i32 %8, i32* %25, align 4, !tbaa !11
  %26 = getelementptr inbounds [300 x i32], [300 x i32]* %1, i64 0, i64 0
  %27 = load i32, i32* %26, align 16, !tbaa !11
  %28 = tail call i32 (i8*, ...) @printf(i8* nonnull dereferenceable(1) getelementptr inbounds ([3 x i8], [3 x i8]* @.str, i64 0, i64 0), i32 %27)
  %29 = icmp eq i32 %5, 0
  br i1 %29, label %40, label %30

30:                                               ; preds = %23
  %31 = add nuw i32 %5, 1
  %32 = zext i32 %31 to i64
  br label %33

33:                                               ; preds = %30, %33
  %34 = phi i64 [ 1, %30 ], [ %38, %33 ]
  %35 = getelementptr inbounds [300 x i32], [300 x i32]* %1, i64 0, i64 %34
  %36 = load i32, i32* %35, align 4, !tbaa !11
  %37 = tail call i32 (i8*, ...) @printf(i8* nonnull dereferenceable(1) getelementptr inbounds ([4 x i8], [4 x i8]* @.str.1, i64 0, i64 0), i32 %36)
  %38 = add nuw nsw i64 %34, 1
  %39 = icmp eq i64 %38, %32
  br i1 %39, label %40, label %33, !llvm.loop !13

40:                                               ; preds = %33, %23
  %41 = tail call i32 @putchar(i32 10)
  call void @llvm.lifetime.end.p0i8(i64 1200, i8* nonnull %2) #4
  ret void
}

; Function Attrs: argmemonly mustprogress nofree nosync nounwind willreturn
declare void @llvm.lifetime.start.p0i8(i64 immarg, i8* nocapture) #1

; Function Attrs: nofree nounwind
declare noundef i32 @printf(i8* nocapture noundef readonly, ...) local_unnamed_addr #2

; Function Attrs: argmemonly mustprogress nofree nosync nounwind willreturn
declare void @llvm.lifetime.end.p0i8(i64 immarg, i8* nocapture) #1

; Function Attrs: nofree nounwind
declare noundef i32 @getc(%struct._IO_FILE* nocapture noundef) local_unnamed_addr #2

; Function Attrs: nofree nounwind
declare noundef i32 @putchar(i32 noundef) local_unnamed_addr #3


!llvm.module.flags = !{!0, !1, !2, !3}
!llvm.ident = !{!4}

!0 = !{i32 1, !"wchar_size", i32 4}
!1 = !{i32 7, !"PIC Level", i32 2}
!2 = !{i32 7, !"PIE Level", i32 2}
!3 = !{i32 7, !"uwtable", i32 1}
!4 = !{!"clang version 13.0.0"}
!5 = !{!6, !6, i64 0}
!6 = !{!"any pointer", !7, i64 0}
!7 = !{!"omnipotent char", !8, i64 0}
!8 = !{!"Simple C/C++ TBAA"}
!9 = distinct !{!9, !10}
!10 = !{!"llvm.loop.mustprogress"}
!11 = !{!12, !12, i64 0}
!12 = !{!"int", !7, i64 0}
!13 = distinct !{!13, !10}
